; Function Attrs: nounwind uwtable
define internal fastcc i32 @Wlc_NtkRemoveFromAbstraction(ptr noundef %0, ptr noundef readonly captures(none) %1, ptr noundef readonly captures(none) %2) unnamed_addr #1 {
  %4 = getelementptr i8, ptr %0, i64 804
  %.val13 = load i32, ptr %4, align 4, !tbaa !11
  %5 = icmp eq i32 %.val13, 0
  br i1 %5, label %6, label %7

6:                                                ; preds = %3
  tail call void @Wlc_NtkSetRefs(ptr noundef nonnull %0) #24
  br label %7

7:                                                ; preds = %6, %3
  %8 = getelementptr i8, ptr %1, i64 4
  %.val16 = load i32, ptr %8, align 4, !tbaa !11
  %9 = icmp sgt i32 %.val16, 0
  br i1 %9, label %.lr.ph, label %.critedge

.lr.ph:                                           ; preds = %7
  %10 = getelementptr i8, ptr %1, i64 8
  %11 = getelementptr i8, ptr %0, i64 640
  %12 = getelementptr inbounds nuw i8, ptr %2, i64 8
  %13 = getelementptr i8, ptr %0, i64 36
  %14 = getelementptr i8, ptr %0, i64 20
  %15 = getelementptr i8, ptr %0, i64 72
  br label %16

16:                                               ; preds = %.lr.ph, %Wlc_NtkMarkMffc.exit
  %indvars.iv = phi i64 [ 0, %.lr.ph ], [ %indvars.iv.next, %Wlc_NtkMarkMffc.exit ]
  %.018 = phi i32 [ 0, %.lr.ph ], [ %47, %Wlc_NtkMarkMffc.exit ]
  %.val14 = load ptr, ptr %10, align 8, !tbaa !14
  %17 = getelementptr inbounds nuw i32, ptr %.val14, i64 %indvars.iv
  %18 = load i32, ptr %17, align 4, !tbaa !15
  %.val15 = load ptr, ptr %11, align 8, !tbaa !19
  %19 = sext i32 %18 to i64
  %20 = getelementptr inbounds %struct.Wlc_Obj_t_, ptr %.val15, i64 %19
  %.0.val1112.i = load i16, ptr %20, align 8
  %21 = and i16 %.0.val1112.i, 61
  %narrow.i.not13.i = icmp eq i16 %21, 1
  br i1 %narrow.i.not13.i, label %.lr.ph.i, label %Wlc_NtkMarkMffc.exit

.lr.ph.i:                                         ; preds = %16
  %22 = ptrtoint ptr %.val15 to i64
  %23 = load ptr, ptr %12, align 8, !tbaa !37
  %.val6.i.i = load ptr, ptr %15, align 8, !tbaa !14
  br label %24

24:                                               ; preds = %24, %.lr.ph.i
  %.014.i = phi ptr [ %20, %.lr.ph.i ], [ %43, %24 ]
  %25 = ptrtoint ptr %.014.i to i64
  %26 = sub i64 %25, %22
  %27 = sdiv exact i64 %26, 24
  %28 = trunc i64 %27 to i32
  %29 = and i32 %28, 31
  %30 = shl nuw i32 1, %29
  %31 = ashr i32 %28, 5
  %32 = sext i32 %31 to i64
  %33 = getelementptr inbounds i32, ptr %23, i64 %32
  %34 = load i32, ptr %33, align 4, !tbaa !15
  %35 = or i32 %30, %34
  store i32 %35, ptr %33, align 4, !tbaa !15
  %36 = getelementptr i8, ptr %.014.i, i64 20
  %.0.val.i = load i32, ptr %36, align 4, !tbaa !28
  %.val4.i.i = load i32, ptr %13, align 4, !tbaa !11
  %37 = add nsw i32 %.val4.i.i, %.0.val.i
  %.val.i.i = load i32, ptr %14, align 4, !tbaa !11
  %38 = sub i32 %37, %.val.i.i
  %39 = sext i32 %38 to i64
  %40 = getelementptr inbounds i32, ptr %.val6.i.i, i64 %39
  %41 = load i32, ptr %40, align 4, !tbaa !15
  %42 = sext i32 %41 to i64
  %43 = getelementptr inbounds %struct.Wlc_Obj_t_, ptr %.val15, i64 %42
  %.0.val11.i = load i16, ptr %43, align 8
  %44 = and i16 %.0.val11.i, 61
  %narrow.i.not.i = icmp eq i16 %44, 1
  br i1 %narrow.i.not.i, label %24, label %Wlc_NtkMarkMffc.exit, !llvm.loop !210

Wlc_NtkMarkMffc.exit:                             ; preds = %24, %16
  %.0.lcssa.i = phi ptr [ %20, %16 ], [ %43, %24 ]
  %45 = tail call fastcc i32 @Wlc_NtkNodeDeref_rec(ptr noundef nonnull readonly %0, ptr noundef nonnull %.0.lcssa.i, ptr noundef readonly %2)
  %46 = tail call fastcc i32 @Wlc_NtkNodeRef_rec(ptr noundef nonnull readonly %0, ptr noundef nonnull %.0.lcssa.i)
  %47 = add nsw i32 %45, %.018
  %indvars.iv.next = add nuw nsw i64 %indvars.iv, 1
  %.val = load i32, ptr %8, align 4, !tbaa !11
  %48 = sext i32 %.val to i64
  %49 = icmp slt i64 %indvars.iv.next, %48
  br i1 %49, label %16, label %.critedge, !llvm.loop !211

.critedge:                                        ; preds = %Wlc_NtkMarkMffc.exit, %7
  %.0.lcssa = phi i32 [ 0, %7 ], [ %47, %Wlc_NtkMarkMffc.exit ]
  ret i32 %.0.lcssa
}